; Function Attrs: mustprogress uwtable
define void @_ZN10PacketList23applyRecentColumnWidthsEv(ptr noundef nonnull align 8 dereferenceable(464) %0) local_unnamed_addr #0 align 2 {
  %2 = alloca %class.QByteArray, align 16
  %3 = load i32, ptr getelementptr inbounds (%struct._e_prefs, ptr @prefs, i64 0, i32 1), align 8
  %4 = icmp sgt i32 %3, 0
  br i1 %4, label %.lr.ph, label %._crit_edge

.lr.ph:                                           ; preds = %1, %.lr.ph
  %.04 = phi i32 [ %5, %.lr.ph ], [ 0, %1 ]
  tail call void @_ZN9QTreeView15setColumnHiddenEib(ptr noundef nonnull align 8 dereferenceable(40) %0, i32 noundef %.04, i1 noundef zeroext false)
  tail call void @_ZN10PacketList20setRecentColumnWidthEi(ptr noundef nonnull align 8 dereferenceable(464) %0, i32 noundef %.04)
  %5 = add nuw nsw i32 %.04, 1
  %6 = load i32, ptr getelementptr inbounds (%struct._e_prefs, ptr @prefs, i64 0, i32 1), align 8
  %7 = icmp slt i32 %5, %6
  br i1 %7, label %.lr.ph, label %._crit_edge, !llvm.loop !178

._crit_edge:                                      ; preds = %.lr.ph, %1
  %8 = tail call noundef ptr @_ZNK9QTreeView6headerEv(ptr noundef nonnull align 8 dereferenceable(40) %0)
  call void @_ZNK11QHeaderView9saveStateEv(ptr dead_on_unwind nonnull writable sret(%class.QByteArray) align 8 %2, ptr noundef nonnull align 8 dereferenceable(40) %8)
  %9 = getelementptr inbounds i8, ptr %0, i64 200
  %10 = load ptr, ptr %9, align 8
  %11 = getelementptr inbounds i8, ptr %0, i64 208
  %12 = getelementptr inbounds i8, ptr %2, i64 8
  %13 = load ptr, ptr %11, align 8
  %14 = load <2 x ptr>, ptr %2, align 16
  store ptr %10, ptr %2, align 16
  store <2 x ptr> %14, ptr %9, align 8
  store ptr %13, ptr %12, align 8
  %15 = getelementptr inbounds i8, ptr %0, i64 216
  %16 = getelementptr inbounds i8, ptr %2, i64 16
  %17 = load i64, ptr %15, align 8
  %18 = load i64, ptr %16, align 16
  store i64 %18, ptr %15, align 8
  store i64 %17, ptr %16, align 16
  %.not.i.i.i = icmp eq ptr %10, null
  br i1 %.not.i.i.i, label %_ZN10QByteArrayD2Ev.exit, label %_ZN17QArrayDataPointerIcE5derefEv.exit.i.i

_ZN17QArrayDataPointerIcE5derefEv.exit.i.i:       ; preds = %._crit_edge
  %19 = atomicrmw sub ptr %10, i32 1 seq_cst, align 4
  %.not.i.i = icmp eq i32 %19, 1
  br i1 %.not.i.i, label %20, label %_ZN10QByteArrayD2Ev.exit

20:                                               ; preds = %_ZN17QArrayDataPointerIcE5derefEv.exit.i.i
  %21 = load ptr, ptr %2, align 16
  call void @_ZN10QArrayData10deallocateEPS_xx(ptr noundef %21, i64 noundef 1, i64 noundef 8) #20
  br label %_ZN10QByteArrayD2Ev.exit

_ZN10QByteArrayD2Ev.exit:                         ; preds = %._crit_edge, %_ZN17QArrayDataPointerIcE5derefEv.exit.i.i, %20
  ret void
}